target datalayout = "e-m:e-p270:32:32-p271:32:32-p272:64:64-i64:64-i128:128-f80:128-n8:16:32:64-S128"
target triple = "x86_64-pc-linux-gnu"

%struct.TupleDescData = type { i32, i32, i32, i32, ptr, [0 x %struct.CompactAttribute] }
%struct.CompactAttribute = type { i32, i16, i8, i8, i8, i8, i8, i8, i8 }
%struct.FormData_pg_attribute = type { i32, %struct.nameData, i32, i16, i16, i32, i16, i8, i8, i8, i8, i8, i8, i8, i8, i8, i8, i8, i16, i32 }
%struct.nameData = type { [64 x i8] }
%struct.FormData_pg_type = type { i32, %struct.nameData, i32, i32, i16, i8, i8, i8, i8, i8, i8, i32, i32, i32, i32, i32, i32, i32, i32, i32, i32, i32, i8, i8, i8, i32, i32, i32, i32 }
%struct.HeapTupleData = type { i32, %struct.ItemPointerData, i32, ptr }
%struct.ItemPointerData = type { %struct.BlockIdData, i16 }
%struct.BlockIdData = type { i16, i16 }
%struct.HeapTupleHeaderData = type { %union.anon, %struct.ItemPointerData, i16, i16, i8, [0 x i8] }
%union.anon = type { %struct.HeapTupleFields }
%struct.HeapTupleFields = type { i32, i32, %union.anon.0 }
%union.anon.0 = type { i32 }

@.str = private unnamed_addr constant [32 x i8] c"cache lookup failed for type %u\00", align 1
@.str.1 = private unnamed_addr constant [10 x i8] c"tupdesc.c\00", align 1
@__func__.TupleDescInitEntry = private unnamed_addr constant [19 x i8] c"TupleDescInitEntry\00", align 1

; Function Attrs: inlinehint nounwind uwtable
define internal ptr @GETSTRUCT(ptr noundef %0) #2 {
  %2 = alloca ptr, align 8
  store ptr %0, ptr %2, align 8
  %3 = load ptr, ptr %2, align 8
  %4 = getelementptr inbounds nuw %struct.HeapTupleData, ptr %3, i32 0, i32 3
  %5 = load ptr, ptr %4, align 8
  %6 = load ptr, ptr %2, align 8
  %7 = getelementptr inbounds nuw %struct.HeapTupleData, ptr %6, i32 0, i32 3
  %8 = load ptr, ptr %7, align 8
  %9 = getelementptr inbounds nuw %struct.HeapTupleHeaderData, ptr %8, i32 0, i32 4
  %10 = load i8, ptr %9, align 2
  %11 = zext i8 %10 to i32
  %12 = sext i32 %11 to i64
  %13 = getelementptr inbounds i8, ptr %5, i64 %12
  ret ptr %13
}

; Function Attrs: inlinehint nounwind uwtable
define internal i64 @ObjectIdGetDatum(i32 noundef %0) #2 {
  %2 = alloca i32, align 4
  store i32 %0, ptr %2, align 4
  %3 = load i32, ptr %2, align 4
  %4 = zext i32 %3 to i64
  ret i64 %4
}

; Function Attrs: inlinehint nounwind uwtable
define internal ptr @TupleDescAttr(ptr noundef %0, i32 noundef %1) #2 {
  %3 = alloca ptr, align 8
  %4 = alloca i32, align 4
  %5 = alloca ptr, align 8
  store ptr %0, ptr %3, align 8
  store i32 %1, ptr %4, align 4
  call void @llvm.lifetime.start.p0(i64 8, ptr %5) #8
  %6 = load ptr, ptr %3, align 8
  %7 = load ptr, ptr %3, align 8
  %8 = getelementptr inbounds nuw %struct.TupleDescData, ptr %7, i32 0, i32 0
  %9 = load i32, ptr %8, align 8
  %10 = sext i32 %9 to i64
  %11 = mul i64 %10, 16
  %12 = add i64 24, %11
  %13 = getelementptr inbounds nuw i8, ptr %6, i64 %12
  store ptr %13, ptr %5, align 8
  %14 = load ptr, ptr %5, align 8
  %15 = load i32, ptr %4, align 4
  %16 = sext i32 %15 to i64
  %17 = getelementptr inbounds %struct.FormData_pg_attribute, ptr %14, i64 %16
  call void @llvm.lifetime.end.p0(i64 8, ptr %5) #8
  ret ptr %17
}

; Function Attrs: nounwind uwtable
define dso_local void @TupleDescInitEntry(ptr noundef %0, i16 noundef signext %1, ptr noundef %2, i32 noundef %3, i32 noundef %4, i32 noundef %5) #0 {
  %7 = alloca ptr, align 8
  %8 = alloca i16, align 2
  %9 = alloca ptr, align 8
  %10 = alloca i32, align 4
  %11 = alloca i32, align 4
  %12 = alloca i32, align 4
  %13 = alloca ptr, align 8
  %14 = alloca ptr, align 8
  %15 = alloca ptr, align 8
  %16 = alloca ptr, align 8
  %17 = alloca i32, align 4
  %18 = alloca i64, align 8
  %19 = alloca ptr, align 8
  %20 = alloca ptr, align 8
  store ptr %0, ptr %7, align 8
  store i16 %1, ptr %8, align 2
  store ptr %2, ptr %9, align 8
  store i32 %3, ptr %10, align 4
  store i32 %4, ptr %11, align 4
  store i32 %5, ptr %12, align 4
  call void @llvm.lifetime.start.p0(i64 8, ptr %13) #8
  call void @llvm.lifetime.start.p0(i64 8, ptr %14) #8
  call void @llvm.lifetime.start.p0(i64 8, ptr %15) #8
  %21 = load ptr, ptr %7, align 8
  %22 = load i16, ptr %8, align 2
  %23 = sext i16 %22 to i32
  %24 = sub i32 %23, 1
  %25 = call ptr @TupleDescAttr(ptr noundef %21, i32 noundef %24)
  store ptr %25, ptr %15, align 8
  %26 = load ptr, ptr %15, align 8
  %27 = getelementptr inbounds nuw %struct.FormData_pg_attribute, ptr %26, i32 0, i32 0
  store i32 0, ptr %27, align 4
  %28 = load ptr, ptr %9, align 8
  %29 = icmp eq ptr %28, null
  br i1 %29, label %30, label %71

30:                                               ; preds = %6
  br label %31

31:                                               ; preds = %30
  call void @llvm.lifetime.start.p0(i64 8, ptr %16) #8
  %32 = load ptr, ptr %15, align 8
  %33 = getelementptr inbounds nuw %struct.FormData_pg_attribute, ptr %32, i32 0, i32 1
  %34 = getelementptr inbounds nuw %struct.nameData, ptr %33, i32 0, i32 0
  %35 = getelementptr inbounds [64 x i8], ptr %34, i64 0, i64 0
  store ptr %35, ptr %16, align 8
  call void @llvm.lifetime.start.p0(i64 4, ptr %17) #8
  store i32 0, ptr %17, align 4
  call void @llvm.lifetime.start.p0(i64 8, ptr %18) #8
  store i64 64, ptr %18, align 8
  %36 = load ptr, ptr %16, align 8
  %37 = ptrtoint ptr %36 to i64
  %38 = and i64 %37, 7
  %39 = icmp eq i64 %38, 0
  br i1 %39, label %40, label %63

40:                                               ; preds = %31
  %41 = load i64, ptr %18, align 8
  %42 = and i64 %41, 7
  %43 = icmp eq i64 %42, 0
  br i1 %43, label %44, label %63

44:                                               ; preds = %40
  %45 = load i32, ptr %17, align 4
  %46 = icmp eq i32 %45, 0
  br i1 %46, label %47, label %63

47:                                               ; preds = %44
  %48 = load i64, ptr %18, align 8
  %49 = icmp ule i64 %48, 1024
  br i1 %49, label %50, label %63

50:                                               ; preds = %47
  call void @llvm.lifetime.start.p0(i64 8, ptr %19) #8
  %51 = load ptr, ptr %16, align 8
  store ptr %51, ptr %19, align 8
  call void @llvm.lifetime.start.p0(i64 8, ptr %20) #8
  %52 = load ptr, ptr %19, align 8
  %53 = load i64, ptr %18, align 8
  %54 = getelementptr inbounds nuw i8, ptr %52, i64 %53
  store ptr %54, ptr %20, align 8
  br label %55

55:                                               ; preds = %59, %50
  %56 = load ptr, ptr %19, align 8
  %57 = load ptr, ptr %20, align 8
  %58 = icmp ult ptr %56, %57
  br i1 %58, label %59, label %62

59:                                               ; preds = %55
  %60 = load ptr, ptr %19, align 8
  %61 = getelementptr inbounds nuw i64, ptr %60, i32 1
  store ptr %61, ptr %19, align 8
  store i64 0, ptr %60, align 8
  br label %55, !llvm.loop !24

62:                                               ; preds = %55
  call void @llvm.lifetime.end.p0(i64 8, ptr %20) #8
  call void @llvm.lifetime.end.p0(i64 8, ptr %19) #8
  br label %68

63:                                               ; preds = %47, %44, %40, %31
  %64 = load ptr, ptr %16, align 8
  %65 = load i32, ptr %17, align 4
  %66 = trunc i32 %65 to i8
  %67 = load i64, ptr %18, align 8
  call void @llvm.memset.p0.i64(ptr align 1 %64, i8 %66, i64 %67, i1 false)
  br label %68

68:                                               ; preds = %63, %62
  call void @llvm.lifetime.end.p0(i64 8, ptr %18) #8
  call void @llvm.lifetime.end.p0(i64 4, ptr %17) #8
  call void @llvm.lifetime.end.p0(i64 8, ptr %16) #8
  br label %69

69:                                               ; preds = %68
  br label %70

70:                                               ; preds = %69
  br label %83

71:                                               ; preds = %6
  %72 = load ptr, ptr %9, align 8
  %73 = load ptr, ptr %15, align 8
  %74 = getelementptr inbounds nuw %struct.FormData_pg_attribute, ptr %73, i32 0, i32 1
  %75 = getelementptr inbounds nuw %struct.nameData, ptr %74, i32 0, i32 0
  %76 = getelementptr inbounds [64 x i8], ptr %75, i64 0, i64 0
  %77 = icmp ne ptr %72, %76
  br i1 %77, label %78, label %82

78:                                               ; preds = %71
  %79 = load ptr, ptr %15, align 8
  %80 = getelementptr inbounds nuw %struct.FormData_pg_attribute, ptr %79, i32 0, i32 1
  %81 = load ptr, ptr %9, align 8
  call void @namestrcpy(ptr noundef %80, ptr noundef %81)
  br label %82

82:                                               ; preds = %78, %71
  br label %83

83:                                               ; preds = %82, %70
  %84 = load i32, ptr %11, align 4
  %85 = load ptr, ptr %15, align 8
  %86 = getelementptr inbounds nuw %struct.FormData_pg_attribute, ptr %85, i32 0, i32 5
  store i32 %84, ptr %86, align 4
  %87 = load i16, ptr %8, align 2
  %88 = load ptr, ptr %15, align 8
  %89 = getelementptr inbounds nuw %struct.FormData_pg_attribute, ptr %88, i32 0, i32 4
  store i16 %87, ptr %89, align 2
  %90 = load i32, ptr %12, align 4
  %91 = trunc i32 %90 to i16
  %92 = load ptr, ptr %15, align 8
  %93 = getelementptr inbounds nuw %struct.FormData_pg_attribute, ptr %92, i32 0, i32 6
  store i16 %91, ptr %93, align 4
  %94 = load ptr, ptr %15, align 8
  %95 = getelementptr inbounds nuw %struct.FormData_pg_attribute, ptr %94, i32 0, i32 11
  store i8 0, ptr %95, align 2
  %96 = load ptr, ptr %15, align 8
  %97 = getelementptr inbounds nuw %struct.FormData_pg_attribute, ptr %96, i32 0, i32 12
  store i8 0, ptr %97, align 1
  %98 = load ptr, ptr %15, align 8
  %99 = getelementptr inbounds nuw %struct.FormData_pg_attribute, ptr %98, i32 0, i32 13
  store i8 0, ptr %99, align 4
  %100 = load ptr, ptr %15, align 8
  %101 = getelementptr inbounds nuw %struct.FormData_pg_attribute, ptr %100, i32 0, i32 14
  store i8 0, ptr %101, align 1
  %102 = load ptr, ptr %15, align 8
  %103 = getelementptr inbounds nuw %struct.FormData_pg_attribute, ptr %102, i32 0, i32 15
  store i8 0, ptr %103, align 2
  %104 = load ptr, ptr %15, align 8
  %105 = getelementptr inbounds nuw %struct.FormData_pg_attribute, ptr %104, i32 0, i32 16
  store i8 0, ptr %105, align 1
  %106 = load ptr, ptr %15, align 8
  %107 = getelementptr inbounds nuw %struct.FormData_pg_attribute, ptr %106, i32 0, i32 17
  store i8 1, ptr %107, align 4
  %108 = load ptr, ptr %15, align 8
  %109 = getelementptr inbounds nuw %struct.FormData_pg_attribute, ptr %108, i32 0, i32 18
  store i16 0, ptr %109, align 2
  %110 = load i32, ptr %10, align 4
  %111 = call i64 @ObjectIdGetDatum(i32 noundef %110)
  %112 = call ptr @SearchSysCache1(i32 noundef 82, i64 noundef %111)
  store ptr %112, ptr %13, align 8
  %113 = load ptr, ptr %13, align 8
  %114 = icmp ne ptr %113, null
  br i1 %114, label %127, label %115

115:                                              ; preds = %83
  br label %116

116:                                              ; preds = %115
  br i1 true, label %117, label %119

117:                                              ; preds = %116
  %118 = call zeroext i1 @errstart_cold(i32 noundef 21, ptr noundef null) #9
  br i1 %118, label %121, label %124

119:                                              ; preds = %116
  %120 = call zeroext i1 @errstart(i32 noundef 21, ptr noundef null)
  br i1 %120, label %121, label %124

121:                                              ; preds = %119, %117
  %122 = load i32, ptr %10, align 4
  %123 = call i32 (ptr, ...) @errmsg_internal(ptr noundef @.str, i32 noundef %122)
  call void @errfinish(ptr noundef @.str.1, i32 noundef 855, ptr noundef @__func__.TupleDescInitEntry)
  br label %124

124:                                              ; preds = %121, %119, %117
  unreachable

125:                                              ; No predecessors!
  br label %126

126:                                              ; preds = %125
  br label %127

127:                                              ; preds = %126, %83
  %128 = load ptr, ptr %13, align 8
  %129 = call ptr @GETSTRUCT(ptr noundef %128)
  store ptr %129, ptr %14, align 8
  %130 = load i32, ptr %10, align 4
  %131 = load ptr, ptr %15, align 8
  %132 = getelementptr inbounds nuw %struct.FormData_pg_attribute, ptr %131, i32 0, i32 2
  store i32 %130, ptr %132, align 4
  %133 = load ptr, ptr %14, align 8
  %134 = getelementptr inbounds nuw %struct.FormData_pg_type, ptr %133, i32 0, i32 4
  %135 = load i16, ptr %134, align 4
  %136 = load ptr, ptr %15, align 8
  %137 = getelementptr inbounds nuw %struct.FormData_pg_attribute, ptr %136, i32 0, i32 3
  store i16 %135, ptr %137, align 4
  %138 = load ptr, ptr %14, align 8
  %139 = getelementptr inbounds nuw %struct.FormData_pg_type, ptr %138, i32 0, i32 5
  %140 = load i8, ptr %139, align 2, !range !4, !noundef !5
  %141 = trunc i8 %140 to i1
  %142 = load ptr, ptr %15, align 8
  %143 = getelementptr inbounds nuw %struct.FormData_pg_attribute, ptr %142, i32 0, i32 7
  %144 = zext i1 %141 to i8
  store i8 %144, ptr %143, align 2
  %145 = load ptr, ptr %14, align 8
  %146 = getelementptr inbounds nuw %struct.FormData_pg_type, ptr %145, i32 0, i32 22
  %147 = load i8, ptr %146, align 4
  %148 = load ptr, ptr %15, align 8
  %149 = getelementptr inbounds nuw %struct.FormData_pg_attribute, ptr %148, i32 0, i32 8
  store i8 %147, ptr %149, align 1
  %150 = load ptr, ptr %14, align 8
  %151 = getelementptr inbounds nuw %struct.FormData_pg_type, ptr %150, i32 0, i32 23
  %152 = load i8, ptr %151, align 1
  %153 = load ptr, ptr %15, align 8
  %154 = getelementptr inbounds nuw %struct.FormData_pg_attribute, ptr %153, i32 0, i32 9
  store i8 %152, ptr %154, align 4
  %155 = load ptr, ptr %15, align 8
  %156 = getelementptr inbounds nuw %struct.FormData_pg_attribute, ptr %155, i32 0, i32 10
  store i8 0, ptr %156, align 1
  %157 = load ptr, ptr %14, align 8
  %158 = getelementptr inbounds nuw %struct.FormData_pg_type, ptr %157, i32 0, i32 28
  %159 = load i32, ptr %158, align 4
  %160 = load ptr, ptr %15, align 8
  %161 = getelementptr inbounds nuw %struct.FormData_pg_attribute, ptr %160, i32 0, i32 19
  store i32 %159, ptr %161, align 4
  %162 = load ptr, ptr %7, align 8
  %163 = load i16, ptr %8, align 2
  %164 = sext i16 %163 to i32
  %165 = sub i32 %164, 1
  call void @populate_compact_attribute(ptr noundef %162, i32 noundef %165)
  %166 = load ptr, ptr %13, align 8
  call void @ReleaseSysCache(ptr noundef %166)
  call void @llvm.lifetime.end.p0(i64 8, ptr %15) #8
  call void @llvm.lifetime.end.p0(i64 8, ptr %14) #8
  call void @llvm.lifetime.end.p0(i64 8, ptr %13) #8
  ret void
}