; Function Attrs: nounwind uwtable
define dso_local void @TupleDescInitEntry(ptr noundef %0, i16 noundef signext %1, ptr noundef %2, i32 noundef %3, i32 noundef %4, i32 noundef %5) local_unnamed_addr #0 {
  %7 = sext i16 %1 to i32
  %8 = add nsw i32 %7, -1
  %9 = load i32, ptr %0, align 8
  %10 = sext i32 %9 to i64
  %11 = shl nsw i64 %10, 4
  %12 = getelementptr i8, ptr %0, i64 %11
  %13 = getelementptr i8, ptr %12, i64 24
  %14 = sext i32 %8 to i64
  %15 = getelementptr inbounds %struct.FormData_pg_attribute, ptr %13, i64 %14
  store i32 0, ptr %15, align 4
  %16 = icmp eq ptr %2, null
  %.ptr61 = getelementptr inbounds nuw i8, ptr %15, i64 4
  br i1 %16, label %17, label %26

17:                                               ; preds = %6
  %18 = ptrtoint ptr %.ptr61 to i64
  %19 = and i64 %18, 7
  %20 = icmp eq i64 %19, 0
  br i1 %20, label %.preheader.preheader, label %25

.preheader.preheader:                             ; preds = %17
  %21 = sext i16 %1 to i64
  %22 = mul nsw i64 %21, 100
  %23 = getelementptr i8, ptr %0, i64 %22
  %24 = getelementptr i8, ptr %23, i64 %11
  %scevgep = getelementptr i8, ptr %24, i64 -72
  tail call void @llvm.memset.p0.i64(ptr noundef nonnull align 8 dereferenceable(64) %scevgep, i8 0, i64 64, i1 false)
  br label %.loopexit

25:                                               ; preds = %17
  tail call void @llvm.memset.p0.i64(ptr noundef nonnull align 1 dereferenceable(64) %.ptr61, i8 0, i64 64, i1 false)
  br label %.loopexit

26:                                               ; preds = %6
  %.not = icmp eq ptr %2, %.ptr61
  br i1 %.not, label %.loopexit, label %27

27:                                               ; preds = %26
  tail call void @namestrcpy(ptr noundef nonnull %.ptr61, ptr noundef nonnull %2) #11
  br label %.loopexit

.loopexit:                                        ; preds = %.preheader.preheader, %25, %26, %27
  %28 = getelementptr inbounds nuw i8, ptr %15, i64 76
  store i32 %4, ptr %28, align 4
  %29 = getelementptr inbounds nuw i8, ptr %15, i64 74
  store i16 %1, ptr %29, align 2
  %30 = trunc i32 %5 to i16
  %31 = getelementptr inbounds nuw i8, ptr %15, i64 80
  store i16 %30, ptr %31, align 4
  %32 = getelementptr inbounds nuw i8, ptr %15, i64 86
  %33 = getelementptr inbounds nuw i8, ptr %15, i64 92
  tail call void @llvm.memset.p0.i64(ptr noundef nonnull align 2 dereferenceable(6) %32, i8 0, i64 6, i1 false)
  store i8 1, ptr %33, align 4
  %34 = getelementptr inbounds nuw i8, ptr %15, i64 94
  store i16 0, ptr %34, align 2
  %35 = zext i32 %3 to i64
  %36 = tail call ptr @SearchSysCache1(i32 noundef 82, i64 noundef %35) #11
  %.not62 = icmp eq ptr %36, null
  br i1 %.not62, label %37, label %40

37:                                               ; preds = %.loopexit
  %38 = tail call zeroext i1 @errstart_cold(i32 noundef 21, ptr noundef null) #10
  tail call void @llvm.assume(i1 %38)
  %39 = tail call i32 (ptr, ...) @errmsg_internal(ptr noundef nonnull @.str, i32 noundef %3) #11
  tail call void @errfinish(ptr noundef nonnull @.str.1, i32 noundef 855, ptr noundef nonnull @__func__.TupleDescInitEntry) #11
  unreachable

40:                                               ; preds = %.loopexit
  %41 = getelementptr i8, ptr %36, i64 16
  %.val = load ptr, ptr %41, align 8
  %42 = getelementptr inbounds nuw i8, ptr %.val, i64 22
  %43 = load i8, ptr %42, align 2
  %44 = zext i8 %43 to i64
  %45 = getelementptr inbounds nuw i8, ptr %.val, i64 %44
  %46 = getelementptr inbounds nuw i8, ptr %15, i64 68
  store i32 %3, ptr %46, align 4
  %47 = getelementptr inbounds nuw i8, ptr %45, i64 76
  %48 = load i16, ptr %47, align 4
  %49 = getelementptr inbounds nuw i8, ptr %15, i64 72
  store i16 %48, ptr %49, align 4
  %50 = getelementptr inbounds nuw i8, ptr %45, i64 78
  %51 = load i8, ptr %50, align 2, !range !4, !noundef !5
  %52 = getelementptr inbounds nuw i8, ptr %15, i64 82
  store i8 %51, ptr %52, align 2
  %53 = getelementptr inbounds nuw i8, ptr %45, i64 128
  %54 = load i8, ptr %53, align 4
  %55 = getelementptr inbounds nuw i8, ptr %15, i64 83
  store i8 %54, ptr %55, align 1
  %56 = getelementptr inbounds nuw i8, ptr %45, i64 129
  %57 = load i8, ptr %56, align 1
  %58 = getelementptr inbounds nuw i8, ptr %15, i64 84
  store i8 %57, ptr %58, align 4
  %59 = getelementptr inbounds nuw i8, ptr %15, i64 85
  store i8 0, ptr %59, align 1
  %60 = getelementptr inbounds nuw i8, ptr %45, i64 144
  %61 = load i32, ptr %60, align 4
  %62 = getelementptr inbounds nuw i8, ptr %15, i64 96
  store i32 %61, ptr %62, align 4
  tail call void @populate_compact_attribute(ptr noundef nonnull %0, i32 noundef %8)
  tail call void @ReleaseSysCache(ptr noundef nonnull %36) #11
  ret void
}